; Function Attrs: mustprogress uwtable
define dso_local void @_ZN9VInFilterC2ERKNSt7__cxx1112basic_stringIcSt11char_traitsIcESaIcEEE(ptr noundef nonnull writeonly align 8 captures(none) dereferenceable(8) %0, ptr noundef nonnull align 8 dereferenceable(32) %1) unnamed_addr #4 align 2 personality ptr @__gxx_personality_v0 {
  %3 = tail call noalias noundef nonnull dereferenceable(72) ptr @_Znwm(i64 noundef 72) #30
  %4 = getelementptr inbounds nuw i8, ptr %3, i64 8
  store i32 0, ptr %4, align 8, !tbaa !135
  %5 = getelementptr inbounds nuw i8, ptr %3, i64 16
  store ptr null, ptr %5, align 8, !tbaa !4
  %6 = getelementptr inbounds nuw i8, ptr %3, i64 24
  store ptr %4, ptr %6, align 8, !tbaa !30
  %7 = getelementptr inbounds nuw i8, ptr %3, i64 32
  store ptr %4, ptr %7, align 8, !tbaa !136
  %8 = getelementptr inbounds nuw i8, ptr %3, i64 40
  store i64 0, ptr %8, align 8, !tbaa !137
  %9 = getelementptr inbounds nuw i8, ptr %3, i64 48
  store i8 0, ptr %9, align 8, !tbaa !138
  %10 = getelementptr inbounds nuw i8, ptr %3, i64 52
  store i32 0, ptr %10, align 4, !tbaa !140
  %11 = getelementptr inbounds nuw i8, ptr %3, i64 56
  store i8 0, ptr %11, align 8, !tbaa !141
  %12 = getelementptr inbounds nuw i8, ptr %3, i64 60
  store i32 0, ptr %12, align 4, !tbaa !142
  %13 = getelementptr inbounds nuw i8, ptr %3, i64 64
  store i32 0, ptr %13, align 8, !tbaa !143
  %14 = getelementptr inbounds nuw i8, ptr %3, i64 68
  store i32 0, ptr %14, align 4, !tbaa !144
  %15 = tail call noundef i32 @_ZNKSt7__cxx1112basic_stringIcSt11char_traitsIcESaIcEE7compareEPKc(ptr noundef nonnull align 8 dereferenceable(32) %1, ptr noundef nonnull @.str.73) #34
  %16 = icmp eq i32 %15, 0
  br i1 %16, label %17, label %18

17:                                               ; preds = %2
  store i32 0, ptr %10, align 4, !tbaa !140
  br label %_ZN12VInFilterImpC2ERKNSt7__cxx1112basic_stringIcSt11char_traitsIcESaIcEEE.exit

18:                                               ; preds = %2
  invoke void @_ZN12VInFilterImp11startFilterERKNSt7__cxx1112basic_stringIcSt11char_traitsIcESaIcEEE(ptr noundef nonnull align 8 dereferenceable(72) %3, ptr noundef nonnull align 8 dereferenceable(32) %1)
          to label %_ZN12VInFilterImpC2ERKNSt7__cxx1112basic_stringIcSt11char_traitsIcESaIcEEE.exit unwind label %.body

.body:                                            ; preds = %18
  %19 = landingpad { ptr, i32 }
          cleanup
  tail call void @_ZNSt3mapIKNSt7__cxx1112basic_stringIcSt11char_traitsIcESaIcEEES5_St4lessIS6_ESaISt4pairIS6_S5_EEED2Ev(ptr noundef nonnull align 8 dereferenceable(72) %3) #34
  tail call void @_ZdlPvm(ptr noundef nonnull %3, i64 noundef 72) #31
  resume { ptr, i32 } %19

_ZN12VInFilterImpC2ERKNSt7__cxx1112basic_stringIcSt11char_traitsIcESaIcEEE.exit: ; preds = %18, %17
  store ptr %3, ptr %0, align 8, !tbaa !145
  ret void
}